(dp1
S'<p>:uyy'
p2
I35
sS'<p>:dg'
p3
I36
sS'<p>:nz'
p4
I0
sS'<p>:<root>'
p5
I1
sS'<p>:nsf'
p6
I2
sS'<p>:u'
p7
I57
sS'<p>:uls'
p8
I3
sS'<p>:nr'
p9
I4
sS'<p>:ns'
p10
I5
sS'<p>:nt'
p11
I6
sS'<p>:nr2'
p12
I7
sS'<p>:nr1'
p13
I8
sS'<p>:nl'
p14
I9
sS'<p>:c'
p15
I43
sS'<p>:bl'
p16
I10
sS'<p>:n'
p17
I52
sS'<p>:pba'
p18
I40
sS'<p>:ule'
p19
I11
sS'<p>:ryv'
p20
I12
sS'<p>:q'
p21
I53
sS'<p>:ryt'
p22
I13
sS'<p>:Rg'
p23
I14
sS'<p>:udeng'
p24
I45
sS'<p>:rys'
p25
I15
sS'<p>:f'
p26
I47
sS'<p>:uguo'
p27
I48
sS'<p>:k'
p28
I49
sS'<p>:m'
p29
I50
sS'<p>:qt'
p30
I16
sS'<p>:o'
p31
I51
sS'<p>:qv'
p32
I17
sS'<p>:ulian'
p33
I18
sS'<p>:p'
p34
I54
sS'<p>:s'
p35
I55
sS'<p>:r'
p36
I56
sS'<p>:vshi'
p37
I19
sS'<p>:t'
p38
I58
sS'<p>:v'
p39
I59
sS'<p>:y'
p40
I60
sS'<p>:ude1'
p41
I20
sS'<p>:ude2'
p42
I21
sS'<p>:ude3'
p43
I22
sS'<p>:dl'
p44
I37
sS'<p>:usuo'
p45
I38
sS'<p>:a'
p46
I42
sS'<p>:nrf'
p47
I23
sS'<p>:an'
p48
I24
sS'<p>:vf'
p49
I73
sS'<p>:nrj'
p50
I25
sS'<p>:vg'
p51
I64
sS'<p>:mq'
p52
I26
sS'<p>:ad'
p53
I27
sS'<p>:ag'
p54
I28
sS'<p>:rzt'
p55
I76
sS'<p>:cc'
p56
I65
sS'<p>:b'
p57
I44
sS'<p>:uzhe'
p58
I29
sS'<p>:vl'
p59
I77
sS'<p>:rr'
p60
I66
sS'<p>:x'
p61
I61
sS'<p>:uzhi'
p62
I30
sS'<p>:vyou'
p63
I31
sS'<p>:ry'
p64
I68
sS'<p>:rz'
p65
I69
sS'<p>:d'
p66
I46
sS'<p>:ng'
p67
I62
sS'<p>:z'
p68
I32
sS'<p>:h'
p69
I74
sS'<p>:vx'
p70
I70
sS'<p>:rzs'
p71
I71
sS'<p>:tg'
p72
I33
sS'<p>:<null>'
p73
I63
sS'<p>:vd'
p74
I72
sS'<p>:al'
p75
I41
sS'<p>:<unk>'
p76
I34
sS'<p>:rzv'
p77
I67
sS'<p>:vi'
p78
I75
sS'<p>:pbei'
p79
I39
sS'<p>:vn'
p80
I78
s.